target datalayout = "e-m:e-p270:32:32-p271:32:32-p272:64:64-i64:64-i128:128-f80:128-n8:16:32:64-S128"
target triple = "x86_64-pc-linux-gnu"

%struct.decNumber = type { i32, i32, i8, [1 x i16] }
%struct.decContext = type { i32, i32, i32, i32, i32, i32, i8 }

@DECPOWERS = external constant [10 x i32], align 16

; Function Attrs: nounwind uwtable
define internal void @decSetMaxValue(ptr noundef %0, ptr noundef %1) #0 {
  %3 = alloca ptr, align 8
  %4 = alloca ptr, align 8
  %5 = alloca ptr, align 8
  %6 = alloca i32, align 4
  store ptr %0, ptr %3, align 8, !tbaa !4
  store ptr %1, ptr %4, align 8, !tbaa !4
  call void @llvm.lifetime.start.p0(i64 8, ptr %5) #7
  call void @llvm.lifetime.start.p0(i64 4, ptr %6) #7
  %7 = load ptr, ptr %4, align 8, !tbaa !4
  %8 = getelementptr inbounds nuw %struct.decContext, ptr %7, i32 0, i32 0
  %9 = load i32, ptr %8, align 4, !tbaa !33
  store i32 %9, ptr %6, align 4, !tbaa !8
  %10 = load i32, ptr %6, align 4, !tbaa !8
  %11 = load ptr, ptr %3, align 8, !tbaa !4
  %12 = getelementptr inbounds nuw %struct.decNumber, ptr %11, i32 0, i32 0
  store i32 %10, ptr %12, align 4, !tbaa !18
  %13 = load ptr, ptr %3, align 8, !tbaa !4
  %14 = getelementptr inbounds nuw %struct.decNumber, ptr %13, i32 0, i32 3
  %15 = getelementptr inbounds [1 x i16], ptr %14, i64 0, i64 0
  store ptr %15, ptr %5, align 8, !tbaa !12
  br label %16

16:                                               ; preds = %32, %2
  %17 = load i32, ptr %6, align 4, !tbaa !8
  %18 = icmp sgt i32 %17, 3
  br i1 %18, label %19, label %21

19:                                               ; preds = %16
  %20 = load ptr, ptr %5, align 8, !tbaa !12
  store i16 999, ptr %20, align 2, !tbaa !14
  br label %29

21:                                               ; preds = %16
  %22 = load i32, ptr %6, align 4, !tbaa !8
  %23 = sext i32 %22 to i64
  %24 = getelementptr inbounds [10 x i32], ptr @DECPOWERS, i64 0, i64 %23
  %25 = load i32, ptr %24, align 4, !tbaa !8
  %26 = sub i32 %25, 1
  %27 = trunc i32 %26 to i16
  %28 = load ptr, ptr %5, align 8, !tbaa !12
  store i16 %27, ptr %28, align 2, !tbaa !14
  br label %35

29:                                               ; preds = %19
  %30 = load i32, ptr %6, align 4, !tbaa !8
  %31 = sub nsw i32 %30, 3
  store i32 %31, ptr %6, align 4, !tbaa !8
  br label %32

32:                                               ; preds = %29
  %33 = load ptr, ptr %5, align 8, !tbaa !12
  %34 = getelementptr inbounds nuw i16, ptr %33, i32 1
  store ptr %34, ptr %5, align 8, !tbaa !12
  br label %16

35:                                               ; preds = %21
  %36 = load ptr, ptr %3, align 8, !tbaa !4
  %37 = getelementptr inbounds nuw %struct.decNumber, ptr %36, i32 0, i32 2
  store i8 0, ptr %37, align 4, !tbaa !10
  %38 = load ptr, ptr %4, align 8, !tbaa !4
  %39 = getelementptr inbounds nuw %struct.decContext, ptr %38, i32 0, i32 1
  %40 = load i32, ptr %39, align 4, !tbaa !39
  %41 = load ptr, ptr %4, align 8, !tbaa !4
  %42 = getelementptr inbounds nuw %struct.decContext, ptr %41, i32 0, i32 0
  %43 = load i32, ptr %42, align 4, !tbaa !33
  %44 = sub nsw i32 %40, %43
  %45 = add nsw i32 %44, 1
  %46 = load ptr, ptr %3, align 8, !tbaa !4
  %47 = getelementptr inbounds nuw %struct.decNumber, ptr %46, i32 0, i32 1
  store i32 %45, ptr %47, align 4, !tbaa !19
  call void @llvm.lifetime.end.p0(i64 4, ptr %6) #7
  call void @llvm.lifetime.end.p0(i64 8, ptr %5) #7
  ret void
}