; Function Attrs: nofree norecurse nosync nounwind memory(argmem: readwrite) uwtable
define internal fastcc void @decSetMaxValue(ptr noundef writeonly captures(none) initializes((0, 4)) %0, ptr noundef readonly captures(none) %1) unnamed_addr #0 {
  %3 = load i32, ptr %1, align 4, !tbaa !25
  store i32 %3, ptr %0, align 4, !tbaa !10
  %4 = getelementptr inbounds nuw i8, ptr %0, i64 10
  %5 = icmp sgt i32 %3, 3
  br i1 %5, label %.lr.ph, label %._crit_edge

.lr.ph:                                           ; preds = %2, %.lr.ph
  %.015 = phi i32 [ %6, %.lr.ph ], [ %3, %2 ]
  %.01314 = phi ptr [ %7, %.lr.ph ], [ %4, %2 ]
  store i16 999, ptr %.01314, align 2, !tbaa !11
  %6 = add nsw i32 %.015, -3
  %7 = getelementptr inbounds nuw i8, ptr %.01314, i64 2
  %8 = icmp samesign ugt i32 %.015, 6
  br i1 %8, label %.lr.ph, label %._crit_edge

._crit_edge:                                      ; preds = %.lr.ph, %2
  %.013.lcssa = phi ptr [ %4, %2 ], [ %7, %.lr.ph ]
  %.0.lcssa = phi i32 [ %3, %2 ], [ %6, %.lr.ph ]
  %9 = sext i32 %.0.lcssa to i64
  %10 = getelementptr inbounds [10 x i32], ptr @DECPOWERS, i64 0, i64 %9
  %11 = load i32, ptr %10, align 4, !tbaa !16
  %12 = trunc i32 %11 to i16
  %13 = add i16 %12, -1
  store i16 %13, ptr %.013.lcssa, align 2, !tbaa !11
  %14 = getelementptr inbounds nuw i8, ptr %0, i64 8
  store i8 0, ptr %14, align 4, !tbaa !4
  %15 = getelementptr inbounds nuw i8, ptr %1, i64 4
  %16 = load i32, ptr %15, align 4, !tbaa !31
  %reass.sub = sub i32 %16, %3
  %17 = add i32 %reass.sub, 1
  %18 = getelementptr inbounds nuw i8, ptr %0, i64 4
  store i32 %17, ptr %18, align 4, !tbaa !9
  ret void
}